; Function Attrs: mustprogress nofree norecurse nosync nounwind willreturn memory(none) uwtable
define hidden noundef range(i32 0, 4) i32 @_ZN5boost6locale8impl_icu21time_flags_to_icu_lenEm(i64 noundef %0) local_unnamed_addr #6 {
  %2 = tail call i64 @llvm.fshl.i64(i64 %0, i64 %0, i64 57)
  %switch.tableidx = add i64 %2, -1
  %3 = icmp ult i64 %switch.tableidx, 4
  %switch.idx.cast = trunc i64 %switch.tableidx to i32
  %switch.offset = sub i32 3, %switch.idx.cast
  %.0 = select i1 %3, i32 %switch.offset, i32 2
  ret i32 %.0
}